; Function Attrs: nounwind uwtable
define ptr @av_film_grain_params_select(ptr noundef readonly captures(none) %0) local_unnamed_addr #0 {
  %2 = getelementptr inbounds nuw i8, ptr %0, i64 116
  %3 = load i32, ptr %2, align 4, !tbaa !16
  %4 = tail call ptr @av_pix_fmt_desc_get(i32 noundef %3) #3
  %.not = icmp eq ptr %4, null
  br i1 %.not, label %.loopexit, label %5

5:                                                ; preds = %1
  %6 = getelementptr inbounds nuw i8, ptr %4, i64 40
  %7 = load i32, ptr %6, align 8, !tbaa !24
  %8 = getelementptr inbounds nuw i8, ptr %0, i64 272
  %9 = load i32, ptr %8, align 8, !tbaa !26
  %10 = icmp sgt i32 %9, 0
  br i1 %10, label %.lr.ph, label %.loopexit

.lr.ph:                                           ; preds = %5
  %11 = getelementptr inbounds nuw i8, ptr %0, i64 264
  %12 = load ptr, ptr %11, align 8, !tbaa !27
  %13 = getelementptr inbounds nuw i8, ptr %0, i64 104
  %14 = getelementptr inbounds nuw i8, ptr %0, i64 108
  %15 = icmp ne i32 %7, 0
  %16 = getelementptr inbounds nuw i8, ptr %0, i64 280
  %17 = getelementptr inbounds nuw i8, ptr %0, i64 284
  %18 = getelementptr inbounds nuw i8, ptr %0, i64 288
  %19 = getelementptr inbounds nuw i8, ptr %0, i64 292
  %20 = getelementptr inbounds nuw i8, ptr %4, i64 9
  %21 = getelementptr inbounds nuw i8, ptr %4, i64 10
  %wide.trip.count = zext nneg i32 %9 to i64
  br label %22

22:                                               ; preds = %.lr.ph, %104
  %indvars.iv = phi i64 [ 0, %.lr.ph ], [ %indvars.iv.next, %104 ]
  %.060102 = phi ptr [ null, %.lr.ph ], [ %.1, %104 ]
  %23 = getelementptr inbounds nuw ptr, ptr %12, i64 %indvars.iv
  %24 = load ptr, ptr %23, align 8, !tbaa !28
  %25 = load i32, ptr %24, align 8, !tbaa !30
  %.not76 = icmp eq i32 %25, 21
  br i1 %.not76, label %26, label %104

26:                                               ; preds = %22
  %27 = getelementptr inbounds nuw i8, ptr %24, i64 8
  %28 = load ptr, ptr %27, align 8, !tbaa !8
  %29 = getelementptr inbounds nuw i8, ptr %28, i64 16
  %30 = load i32, ptr %29, align 8, !tbaa !31
  %.not77 = icmp eq i32 %30, 0
  br i1 %.not77, label %34, label %31

31:                                               ; preds = %26
  %32 = load i32, ptr %13, align 8, !tbaa !33
  %33 = icmp sgt i32 %30, %32
  br i1 %33, label %104, label %34

34:                                               ; preds = %31, %26
  %35 = getelementptr inbounds nuw i8, ptr %28, i64 20
  %36 = load i32, ptr %35, align 4, !tbaa !34
  %.not78 = icmp eq i32 %36, 0
  br i1 %.not78, label %40, label %37

37:                                               ; preds = %34
  %38 = load i32, ptr %14, align 4, !tbaa !35
  %39 = icmp sgt i32 %36, %38
  br i1 %39, label %104, label %40

40:                                               ; preds = %37, %34
  %41 = getelementptr inbounds nuw i8, ptr %28, i64 48
  %42 = load i32, ptr %41, align 8, !tbaa !36
  %43 = icmp ne i32 %42, 0
  %.not79 = icmp ne i32 %42, %7
  %44 = and i1 %15, %.not79
  %or.cond96.not = select i1 %43, i1 %44, i1 false
  br i1 %or.cond96.not, label %104, label %45

45:                                               ; preds = %40
  %46 = getelementptr inbounds nuw i8, ptr %28, i64 52
  %47 = load i32, ptr %46, align 4, !tbaa !37
  %48 = icmp ne i32 %47, 0
  %.not80 = icmp ne i32 %47, %7
  %49 = and i1 %15, %.not80
  %or.cond97.not = select i1 %48, i1 %49, i1 false
  br i1 %or.cond97.not, label %104, label %50

50:                                               ; preds = %45
  %51 = getelementptr inbounds nuw i8, ptr %28, i64 32
  %52 = load i32, ptr %51, align 8, !tbaa !38
  %.not81 = icmp eq i32 %52, 0
  br i1 %.not81, label %55, label %53

53:                                               ; preds = %50
  %54 = load i32, ptr %16, align 8, !tbaa !39
  %.not82 = icmp eq i32 %54, 0
  %.not83 = icmp eq i32 %52, %54
  %or.cond98 = or i1 %.not82, %.not83
  br i1 %or.cond98, label %55, label %104

55:                                               ; preds = %53, %50
  %56 = getelementptr inbounds nuw i8, ptr %28, i64 36
  %57 = load i32, ptr %56, align 4, !tbaa !40
  %.not84 = icmp eq i32 %57, 2
  br i1 %.not84, label %60, label %58

58:                                               ; preds = %55
  %59 = load i32, ptr %17, align 4, !tbaa !41
  %.not85 = icmp eq i32 %59, 2
  %.not86 = icmp eq i32 %57, %59
  %or.cond99 = or i1 %.not85, %.not86
  br i1 %or.cond99, label %60, label %104

60:                                               ; preds = %58, %55
  %61 = getelementptr inbounds nuw i8, ptr %28, i64 40
  %62 = load i32, ptr %61, align 8, !tbaa !42
  %.not87 = icmp eq i32 %62, 2
  br i1 %.not87, label %65, label %63

63:                                               ; preds = %60
  %64 = load i32, ptr %18, align 8, !tbaa !43
  %.not88 = icmp eq i32 %64, 2
  %.not89 = icmp eq i32 %62, %64
  %or.cond100 = or i1 %.not88, %.not89
  br i1 %or.cond100, label %65, label %104

65:                                               ; preds = %63, %60
  %66 = getelementptr inbounds nuw i8, ptr %28, i64 44
  %67 = load i32, ptr %66, align 4, !tbaa !44
  %.not90 = icmp eq i32 %67, 2
  br i1 %.not90, label %70, label %68

68:                                               ; preds = %65
  %69 = load i32, ptr %19, align 4, !tbaa !45
  %.not91 = icmp eq i32 %69, 2
  %.not92 = icmp eq i32 %67, %69
  %or.cond101 = or i1 %.not91, %.not92
  br i1 %or.cond101, label %70, label %104

70:                                               ; preds = %68, %65
  %71 = load i32, ptr %28, align 8, !tbaa !46
  switch i32 %71, label %94 [
    i32 0, label %104
    i32 1, label %72
    i32 2, label %82
  ]

72:                                               ; preds = %70
  %73 = getelementptr inbounds nuw i8, ptr %28, i64 24
  %74 = load i32, ptr %73, align 8, !tbaa !47
  %75 = load i8, ptr %20, align 1, !tbaa !48
  %76 = zext i8 %75 to i32
  %.not93 = icmp eq i32 %74, %76
  br i1 %.not93, label %77, label %104

77:                                               ; preds = %72
  %78 = getelementptr inbounds nuw i8, ptr %28, i64 28
  %79 = load i32, ptr %78, align 4, !tbaa !50
  %80 = load i8, ptr %21, align 2, !tbaa !51
  %81 = zext i8 %80 to i32
  %.not94 = icmp eq i32 %79, %81
  br i1 %.not94, label %94, label %104

82:                                               ; preds = %70
  %83 = getelementptr inbounds nuw i8, ptr %28, i64 24
  %84 = load i32, ptr %83, align 8, !tbaa !47
  %85 = load i8, ptr %20, align 1, !tbaa !48
  %86 = zext i8 %85 to i32
  %87 = icmp sgt i32 %84, %86
  br i1 %87, label %104, label %88

88:                                               ; preds = %82
  %89 = getelementptr inbounds nuw i8, ptr %28, i64 28
  %90 = load i32, ptr %89, align 4, !tbaa !50
  %91 = load i8, ptr %21, align 2, !tbaa !51
  %92 = zext i8 %91 to i32
  %93 = icmp sgt i32 %90, %92
  br i1 %93, label %104, label %94

94:                                               ; preds = %88, %77, %70
  %.not95 = icmp eq ptr %.060102, null
  br i1 %.not95, label %103, label %95

95:                                               ; preds = %94
  %96 = getelementptr inbounds nuw i8, ptr %.060102, i64 16
  %97 = load i32, ptr %96, align 8, !tbaa !31
  %98 = icmp slt i32 %97, %30
  br i1 %98, label %103, label %99

99:                                               ; preds = %95
  %100 = getelementptr inbounds nuw i8, ptr %.060102, i64 20
  %101 = load i32, ptr %100, align 4, !tbaa !34
  %102 = icmp slt i32 %101, %36
  br i1 %102, label %103, label %104

103:                                              ; preds = %99, %95, %94
  br label %104

104:                                              ; preds = %68, %63, %58, %53, %45, %40, %99, %103, %82, %88, %72, %77, %70, %31, %37, %22
  %.1 = phi ptr [ %.060102, %22 ], [ %.060102, %31 ], [ %.060102, %37 ], [ %28, %103 ], [ %.060102, %99 ], [ %.060102, %82 ], [ %.060102, %88 ], [ %.060102, %72 ], [ %.060102, %77 ], [ %.060102, %70 ], [ %.060102, %40 ], [ %.060102, %45 ], [ %.060102, %53 ], [ %.060102, %58 ], [ %.060102, %63 ], [ %.060102, %68 ]
  %indvars.iv.next = add nuw nsw i64 %indvars.iv, 1
  %exitcond.not = icmp eq i64 %indvars.iv.next, %wide.trip.count
  br i1 %exitcond.not, label %.loopexit, label %22, !llvm.loop !52

.loopexit:                                        ; preds = %104, %5, %1
  %.059 = phi ptr [ null, %1 ], [ null, %5 ], [ %.1, %104 ]
  ret ptr %.059
}